; Function Attrs: nounwind uwtable
define dso_local void @dsa_set_size_limit(ptr noundef readonly captures(none) %0, i64 noundef %1) local_unnamed_addr #0 {
  %3 = load ptr, ptr %0, align 8
  %4 = getelementptr inbounds nuw i8, ptr %3, i64 6172
  %5 = tail call zeroext i1 @LWLockAcquire(ptr noundef nonnull %4, i32 noundef 0) #11
  %6 = load ptr, ptr %0, align 8
  %7 = getelementptr inbounds nuw i8, ptr %6, i64 6136
  store i64 %1, ptr %7, align 8
  %8 = load ptr, ptr %0, align 8
  %9 = getelementptr inbounds nuw i8, ptr %8, i64 6172
  tail call void @LWLockRelease(ptr noundef nonnull %9) #11
  ret void
}